; Function Attrs: uwtable
define noundef i64 @_ZThn1608_N8proxygen11HTTPSession12sendPriorityENS_5http214PriorityUpdateE(ptr noundef %this, i64 %pri.coerce0, i64 %pri.coerce1) unnamed_addr #14 align 2 {
entry:
  %call_.i.i.i = getelementptr inbounds i8, ptr %this, i64 -616
  %0 = load ptr, ptr %call_.i.i.i, align 8
  %vtable.i = load ptr, ptr %0, align 8
  %vfn.i = getelementptr inbounds i8, ptr %vtable.i, i64 152
  %1 = load ptr, ptr %vfn.i, align 8
  %call2.i = tail call noundef zeroext i1 %1(ptr noundef nonnull align 8 dereferenceable(8) %0)
  br i1 %call2.i, label %if.end.i, label %_ZN8proxygen11HTTPSession12sendPriorityENS_5http214PriorityUpdateE.exit

if.end.i:                                         ; preds = %entry
  %2 = getelementptr inbounds i8, ptr %this, i64 -1608
  %3 = load ptr, ptr %call_.i.i.i, align 8
  %vtable5.i = load ptr, ptr %3, align 8
  %vfn6.i = getelementptr inbounds i8, ptr %vtable5.i, i64 64
  %4 = load ptr, ptr %vfn6.i, align 8
  %call7.i = tail call noundef i64 %4(ptr noundef nonnull align 8 dereferenceable(8) %3)
  %vtable8.i = load ptr, ptr %2, align 8
  %vfn9.i = getelementptr inbounds i8, ptr %vtable8.i, i64 312
  %5 = load ptr, ptr %vfn9.i, align 8
  %call10.i = tail call noundef i64 %5(ptr noundef nonnull align 8 dereferenceable(2504) %2, i64 noundef %call7.i, i64 %pri.coerce0, i64 %pri.coerce1)
  br label %_ZN8proxygen11HTTPSession12sendPriorityENS_5http214PriorityUpdateE.exit

_ZN8proxygen11HTTPSession12sendPriorityENS_5http214PriorityUpdateE.exit: ; preds = %entry, %if.end.i
  %retval.0.i = phi i64 [ %call7.i, %if.end.i ], [ 0, %entry ]
  ret i64 %retval.0.i
}